target datalayout = "e-m:e-p270:32:32-p271:32:32-p272:64:64-i64:64-i128:128-f80:128-n8:16:32:64-S128"
target triple = "x86_64-unknown-linux-gnu"

%"class.std::__cxx11::basic_string" = type { %"struct.std::__cxx11::basic_string<char>::_Alloc_hider", i64, %union.anon }
%"struct.std::__cxx11::basic_string<char>::_Alloc_hider" = type { ptr }
%union.anon = type { i64, [8 x i8] }
%"class.std::__shared_count" = type { ptr }
%"class.facebook::jsi::Value" = type { i32, %"union.facebook::jsi::Value::Data" }
%"union.facebook::jsi::Value::Data" = type { double }
%"class.std::shared_ptr.296" = type { %"class.std::__shared_ptr.297" }
%"class.std::__shared_ptr.297" = type { ptr, %"class.std::__shared_count" }

; Function Attrs: mustprogress nounwind uwtable
define internal noundef ptr @_ZN8facebook6hermes12_GLOBAL__N_14implEPNS0_13HermesRuntimeE(ptr noundef %rt) #1 {
entry:
  %rt.addr = alloca ptr, align 8
  store ptr %rt, ptr %rt.addr, align 8
  %0 = load ptr, ptr %rt.addr, align 8
  ret ptr %0
}

; Function Attrs: mustprogress uwtable
define void @_ZN8facebook6hermes13HermesRuntime31evaluateJavaScriptWithSourceMapERKSt10shared_ptrIKNS_3jsi6BufferEES8_RKNSt7__cxx1112basic_stringIcSt11char_traitsIcESaIcEEE(ptr noalias sret(%"class.facebook::jsi::Value") align 8 %agg.result, ptr noundef nonnull align 8 dereferenceable(8) %this, ptr noundef nonnull align 8 dereferenceable(16) %buffer, ptr noundef nonnull align 8 dereferenceable(16) %sourceMapBuf, ptr noundef nonnull align 8 dereferenceable(32) %sourceURL) #0 align 2 personality ptr @__gxx_personality_v0 {
entry:
  %result.ptr = alloca ptr, align 8
  %this.addr = alloca ptr, align 8
  %buffer.addr = alloca ptr, align 8
  %sourceMapBuf.addr = alloca ptr, align 8
  %sourceURL.addr = alloca ptr, align 8
  %ref.tmp = alloca %"class.std::shared_ptr.296", align 8
  %agg.tmp = alloca %"class.std::__cxx11::basic_string", align 8
  %exn.slot = alloca ptr, align 8
  %ehselector.slot = alloca i32, align 4
  store ptr %agg.result, ptr %result.ptr, align 8
  store ptr %this, ptr %this.addr, align 8
  store ptr %buffer, ptr %buffer.addr, align 8
  store ptr %sourceMapBuf, ptr %sourceMapBuf.addr, align 8
  store ptr %sourceURL, ptr %sourceURL.addr, align 8
  %this1 = load ptr, ptr %this.addr, align 8
  %call = call noundef ptr @_ZN8facebook6hermes12_GLOBAL__N_14implEPNS0_13HermesRuntimeE(ptr noundef %this1)
  %call2 = call noundef ptr @_ZN8facebook6hermes12_GLOBAL__N_14implEPNS0_13HermesRuntimeE(ptr noundef %this1)
  %0 = load ptr, ptr %buffer.addr, align 8
  %1 = load ptr, ptr %sourceMapBuf.addr, align 8
  %2 = load ptr, ptr %sourceURL.addr, align 8
  call void @_ZNSt7__cxx1112basic_stringIcSt11char_traitsIcESaIcEEC1ERKS4_(ptr noundef nonnull align 8 dereferenceable(32) %agg.tmp, ptr noundef nonnull align 8 dereferenceable(32) %2)
  invoke void @_ZN8facebook6hermes17HermesRuntimeImpl30prepareJavaScriptWithSourceMapERKSt10shared_ptrIKNS_3jsi6BufferEES8_NSt7__cxx1112basic_stringIcSt11char_traitsIcESaIcEEE(ptr sret(%"class.std::shared_ptr.296") align 8 %ref.tmp, ptr noundef nonnull align 8 dereferenceable(184) %call2, ptr noundef nonnull align 8 dereferenceable(16) %0, ptr noundef nonnull align 8 dereferenceable(16) %1, ptr noundef %agg.tmp)
          to label %invoke.cont unwind label %lpad

invoke.cont:                                      ; preds = %entry
  invoke void @_ZN8facebook6hermes17HermesRuntimeImpl26evaluatePreparedJavaScriptERKSt10shared_ptrIKNS_3jsi18PreparedJavaScriptEE(ptr sret(%"class.facebook::jsi::Value") align 8 %agg.result, ptr noundef nonnull align 8 dereferenceable(184) %call, ptr noundef nonnull align 8 dereferenceable(16) %ref.tmp)
          to label %invoke.cont4 unwind label %lpad3

invoke.cont4:                                     ; preds = %invoke.cont
  call void @_ZNSt10shared_ptrIKN8facebook3jsi18PreparedJavaScriptEED2Ev(ptr noundef nonnull align 8 dereferenceable(16) %ref.tmp) #19
  call void @_ZNSt7__cxx1112basic_stringIcSt11char_traitsIcESaIcEED1Ev(ptr noundef nonnull align 8 dereferenceable(32) %agg.tmp) #19
  ret void

lpad:                                             ; preds = %entry
  %3 = landingpad { ptr, i32 }
          cleanup
  %4 = extractvalue { ptr, i32 } %3, 0
  store ptr %4, ptr %exn.slot, align 8
  %5 = extractvalue { ptr, i32 } %3, 1
  store i32 %5, ptr %ehselector.slot, align 4
  br label %ehcleanup

lpad3:                                            ; preds = %invoke.cont
  %6 = landingpad { ptr, i32 }
          cleanup
  %7 = extractvalue { ptr, i32 } %6, 0
  store ptr %7, ptr %exn.slot, align 8
  %8 = extractvalue { ptr, i32 } %6, 1
  store i32 %8, ptr %ehselector.slot, align 4
  call void @_ZNSt10shared_ptrIKN8facebook3jsi18PreparedJavaScriptEED2Ev(ptr noundef nonnull align 8 dereferenceable(16) %ref.tmp) #19
  br label %ehcleanup

ehcleanup:                                        ; preds = %lpad3, %lpad
  call void @_ZNSt7__cxx1112basic_stringIcSt11char_traitsIcESaIcEED1Ev(ptr noundef nonnull align 8 dereferenceable(32) %agg.tmp) #19
  br label %eh.resume

eh.resume:                                        ; preds = %ehcleanup
  %exn = load ptr, ptr %exn.slot, align 8
  %sel = load i32, ptr %ehselector.slot, align 4
  %lpad.val = insertvalue { ptr, i32 } poison, ptr %exn, 0
  %lpad.val5 = insertvalue { ptr, i32 } %lpad.val, i32 %sel, 1
  resume { ptr, i32 } %lpad.val5
}